#include <math.h>
#include <stdio.h>
#include <stdlib.h>
#include <string.h>
#include <iostream>
using namespace std;


int zichuan(char a[], char b[],int n)
{
	for(int i=0;i<strlen(b);i++)
	{
		if(a[n+i]!=b[i])
			return 0;
	}
	return 1;
}

int main(int argc, char* argv[])
{
	char s[60],w[60];
	cin>>s>>w;

	int i=0;
	for(i=0;;i++)
	{
		if(zichuan(w,s,i)==1)
			break;
	}
	cout<<i;

	return 0;
}
